target datalayout = "e-m:e-p270:32:32-p271:32:32-p272:64:64-i64:64-i128:128-f80:128-n8:16:32:64-S128"
target triple = "x86_64-pc-linux-gnu"

%struct.pm_lex_mode = type { i32, %union.anon, ptr }
%union.anon = type { %struct.anon.3 }
%struct.anon.3 = type { %struct.pm_heredoc_lex_mode_t, ptr, ptr, i8 }
%struct.pm_heredoc_lex_mode_t = type { ptr, i64, i32, i32 }
%struct.pm_parser = type { i32, i32, i32, i32, i32, i32, i32, %struct.anon, ptr, ptr, %struct.pm_token_t, %struct.pm_token_t, ptr, ptr, %struct.pm_list_t, %struct.pm_list_t, %struct.pm_location_t, %struct.pm_list_t, %struct.pm_list_t, ptr, ptr, ptr, ptr, ptr, ptr, ptr, %struct.pm_string_t, %struct.pm_constant_pool_t, %struct.pm_newline_list_t, i16, %struct.pm_string_t, i32, ptr, ptr, i32, i8, i8, i8, i8, i8, i8, i8, i8, i8, i8, i8, i8, i8 }
%struct.anon = type { ptr, [4 x %struct.pm_lex_mode], i64 }
%struct.pm_token_t = type { i32, ptr, ptr }
%struct.pm_location_t = type { ptr, ptr }
%struct.pm_list_t = type { i64, ptr, ptr }
%struct.pm_constant_pool_t = type { ptr, ptr, i32, i32 }
%struct.pm_newline_list_t = type { ptr, i64, i64, ptr }
%struct.pm_string_t = type { ptr, i64, i32 }
%struct.pm_constant_id_list_t = type { i64, i64, ptr }
%struct.pm_node = type { i16, i16, i32, %struct.pm_location_t }
%struct.pm_singleton_class_node = type { %struct.pm_node, %struct.pm_constant_id_list_t, %struct.pm_location_t, %struct.pm_location_t, ptr, ptr, %struct.pm_location_t }

@stderr = external global ptr, align 8
@.str.94 = private unnamed_addr constant [29 x i8] c"Failed to allocate %d bytes\0A\00", align 1

; Function Attrs: inlinehint nounwind sspstrong uwtable
define internal ptr @pm_node_alloc(ptr noundef %0, i64 noundef %1) #7 {
  %3 = alloca ptr, align 8
  %4 = alloca i64, align 8
  %5 = alloca ptr, align 8
  store ptr %0, ptr %3, align 8, !tbaa !7
  store i64 %1, ptr %4, align 8, !tbaa !14
  call void @llvm.lifetime.start.p0(i64 8, ptr %5) #15
  %6 = load i64, ptr %4, align 8, !tbaa !14
  %7 = call noalias ptr @calloc(i64 noundef 1, i64 noundef %6) #18
  store ptr %7, ptr %5, align 8, !tbaa !57
  %8 = load ptr, ptr %5, align 8, !tbaa !57
  %9 = icmp eq ptr %8, null
  br i1 %9, label %10, label %15

10:                                               ; preds = %2
  %11 = load ptr, ptr @stderr, align 8, !tbaa !452
  %12 = load i64, ptr %4, align 8, !tbaa !14
  %13 = trunc i64 %12 to i32
  %14 = call i32 (ptr, i32, ptr, ...) @__fprintf_chk(ptr noundef %11, i32 noundef 1, ptr noundef @.str.94, i32 noundef %13)
  call void @abort() #19
  unreachable

15:                                               ; preds = %2
  %16 = load ptr, ptr %5, align 8, !tbaa !57
  call void @llvm.lifetime.end.p0(i64 8, ptr %5) #15
  ret ptr %16
}

; Function Attrs: nounwind sspstrong uwtable
define internal ptr @pm_singleton_class_node_create(ptr noundef %0, ptr noundef %1, ptr noundef %2, ptr noundef %3, ptr noundef %4, ptr noundef %5, ptr noundef %6) #0 {
  %8 = alloca ptr, align 8
  %9 = alloca ptr, align 8
  %10 = alloca ptr, align 8
  %11 = alloca ptr, align 8
  %12 = alloca ptr, align 8
  %13 = alloca ptr, align 8
  %14 = alloca ptr, align 8
  %15 = alloca ptr, align 8
  %16 = alloca %struct.pm_singleton_class_node, align 8
  store ptr %0, ptr %8, align 8, !tbaa !7
  store ptr %1, ptr %9, align 8, !tbaa !57
  store ptr %2, ptr %10, align 8, !tbaa !57
  store ptr %3, ptr %11, align 8, !tbaa !57
  store ptr %4, ptr %12, align 8, !tbaa !128
  store ptr %5, ptr %13, align 8, !tbaa !128
  store ptr %6, ptr %14, align 8, !tbaa !57
  call void @llvm.lifetime.start.p0(i64 8, ptr %15) #15
  %17 = load ptr, ptr %8, align 8, !tbaa !7
  %18 = call ptr @pm_node_alloc(ptr noundef %17, i64 noundef 112)
  store ptr %18, ptr %15, align 8, !tbaa !675
  %19 = load ptr, ptr %15, align 8, !tbaa !675
  %20 = getelementptr inbounds nuw %struct.pm_singleton_class_node, ptr %16, i32 0, i32 0
  %21 = getelementptr inbounds nuw %struct.pm_node, ptr %20, i32 0, i32 0
  store i16 135, ptr %21, align 8, !tbaa !206
  %22 = getelementptr inbounds nuw %struct.pm_node, ptr %20, i32 0, i32 1
  store i16 0, ptr %22, align 2, !tbaa !222
  %23 = getelementptr inbounds nuw %struct.pm_node, ptr %20, i32 0, i32 2
  %24 = load ptr, ptr %8, align 8, !tbaa !7
  %25 = getelementptr inbounds nuw %struct.pm_parser, ptr %24, i32 0, i32 0
  %26 = load i32, ptr %25, align 8, !tbaa !238
  %27 = add i32 %26, 1
  store i32 %27, ptr %25, align 8, !tbaa !238
  store i32 %27, ptr %23, align 4, !tbaa !239
  %28 = getelementptr inbounds nuw %struct.pm_node, ptr %20, i32 0, i32 3
  %29 = getelementptr inbounds nuw %struct.pm_location_t, ptr %28, i32 0, i32 0
  %30 = load ptr, ptr %10, align 8, !tbaa !57
  %31 = getelementptr inbounds nuw %struct.pm_token_t, ptr %30, i32 0, i32 1
  %32 = load ptr, ptr %31, align 8, !tbaa !43
  store ptr %32, ptr %29, align 8, !tbaa !152
  %33 = getelementptr inbounds nuw %struct.pm_location_t, ptr %28, i32 0, i32 1
  %34 = load ptr, ptr %14, align 8, !tbaa !57
  %35 = getelementptr inbounds nuw %struct.pm_token_t, ptr %34, i32 0, i32 2
  %36 = load ptr, ptr %35, align 8, !tbaa !44
  store ptr %36, ptr %33, align 8, !tbaa !153
  %37 = getelementptr inbounds nuw %struct.pm_singleton_class_node, ptr %16, i32 0, i32 1
  %38 = load ptr, ptr %9, align 8, !tbaa !57
  call void @llvm.memcpy.p0.p0.i64(ptr align 8 %37, ptr align 8 %38, i64 24, i1 false), !tbaa.struct !246
  %39 = getelementptr inbounds nuw %struct.pm_singleton_class_node, ptr %16, i32 0, i32 2
  %40 = getelementptr inbounds nuw %struct.pm_location_t, ptr %39, i32 0, i32 0
  %41 = load ptr, ptr %10, align 8, !tbaa !57
  %42 = getelementptr inbounds nuw %struct.pm_token_t, ptr %41, i32 0, i32 1
  %43 = load ptr, ptr %42, align 8, !tbaa !43
  store ptr %43, ptr %40, align 8, !tbaa !152
  %44 = getelementptr inbounds nuw %struct.pm_location_t, ptr %39, i32 0, i32 1
  %45 = load ptr, ptr %10, align 8, !tbaa !57
  %46 = getelementptr inbounds nuw %struct.pm_token_t, ptr %45, i32 0, i32 2
  %47 = load ptr, ptr %46, align 8, !tbaa !44
  store ptr %47, ptr %44, align 8, !tbaa !153
  %48 = getelementptr inbounds nuw %struct.pm_singleton_class_node, ptr %16, i32 0, i32 3
  %49 = getelementptr inbounds nuw %struct.pm_location_t, ptr %48, i32 0, i32 0
  %50 = load ptr, ptr %11, align 8, !tbaa !57
  %51 = getelementptr inbounds nuw %struct.pm_token_t, ptr %50, i32 0, i32 1
  %52 = load ptr, ptr %51, align 8, !tbaa !43
  store ptr %52, ptr %49, align 8, !tbaa !152
  %53 = getelementptr inbounds nuw %struct.pm_location_t, ptr %48, i32 0, i32 1
  %54 = load ptr, ptr %11, align 8, !tbaa !57
  %55 = getelementptr inbounds nuw %struct.pm_token_t, ptr %54, i32 0, i32 2
  %56 = load ptr, ptr %55, align 8, !tbaa !44
  store ptr %56, ptr %53, align 8, !tbaa !153
  %57 = getelementptr inbounds nuw %struct.pm_singleton_class_node, ptr %16, i32 0, i32 4
  %58 = load ptr, ptr %12, align 8, !tbaa !128
  store ptr %58, ptr %57, align 8, !tbaa !677
  %59 = getelementptr inbounds nuw %struct.pm_singleton_class_node, ptr %16, i32 0, i32 5
  %60 = load ptr, ptr %13, align 8, !tbaa !128
  store ptr %60, ptr %59, align 8, !tbaa !679
  %61 = getelementptr inbounds nuw %struct.pm_singleton_class_node, ptr %16, i32 0, i32 6
  %62 = getelementptr inbounds nuw %struct.pm_location_t, ptr %61, i32 0, i32 0
  %63 = load ptr, ptr %14, align 8, !tbaa !57
  %64 = getelementptr inbounds nuw %struct.pm_token_t, ptr %63, i32 0, i32 1
  %65 = load ptr, ptr %64, align 8, !tbaa !43
  store ptr %65, ptr %62, align 8, !tbaa !152
  %66 = getelementptr inbounds nuw %struct.pm_location_t, ptr %61, i32 0, i32 1
  %67 = load ptr, ptr %14, align 8, !tbaa !57
  %68 = getelementptr inbounds nuw %struct.pm_token_t, ptr %67, i32 0, i32 2
  %69 = load ptr, ptr %68, align 8, !tbaa !44
  store ptr %69, ptr %66, align 8, !tbaa !153
  call void @llvm.memcpy.p0.p0.i64(ptr align 8 %19, ptr align 8 %16, i64 112, i1 false), !tbaa.struct !680
  %70 = load ptr, ptr %15, align 8, !tbaa !675
  call void @llvm.lifetime.end.p0(i64 8, ptr %15) #15
  ret ptr %70
}