; Function Attrs: nounwind sspstrong uwtable
define internal fastcc noalias nonnull ptr @pm_singleton_class_node_create(ptr noundef captures(none) %0, ptr noundef nonnull readonly captures(none) %1, ptr %.8.val, ptr %.16.val, ptr %.8.val1, ptr %.16.val3, ptr noundef %2, ptr noundef %3, ptr noundef readonly captures(none) %4) unnamed_addr #1 {
  %6 = tail call noalias dereferenceable_or_null(112) ptr @calloc(i64 noundef 1, i64 noundef 112) #34
  %7 = icmp eq ptr %6, null
  br i1 %7, label %8, label %pm_node_alloc.exit

8:                                                ; preds = %5
  %9 = load ptr, ptr @stderr, align 8, !tbaa !105
  %10 = tail call i32 (ptr, i32, ptr, ...) @__fprintf_chk(ptr noundef %9, i32 noundef 1, ptr noundef nonnull @.str.94, i32 noundef 112) #31
  tail call void @abort() #35
  unreachable

pm_node_alloc.exit:                               ; preds = %5
  %11 = load i32, ptr %0, align 8, !tbaa !107
  %12 = add i32 %11, 1
  store i32 %12, ptr %0, align 8, !tbaa !107
  %13 = getelementptr inbounds nuw i8, ptr %4, i64 16
  %14 = load ptr, ptr %13, align 8, !tbaa !126
  %.sroa.6.0..sroa_idx = getelementptr inbounds nuw i8, ptr %6, i64 24
  tail call void @llvm.memcpy.p0.p0.i64(ptr noundef nonnull align 8 dereferenceable(24) %.sroa.6.0..sroa_idx, ptr noundef nonnull align 8 dereferenceable(24) %1, i64 24, i1 false)
  %15 = getelementptr inbounds nuw i8, ptr %4, i64 8
  %16 = load ptr, ptr %15, align 8, !tbaa !125
  store i16 135, ptr %6, align 8, !tbaa !108
  %.sroa.3.0..sroa_idx = getelementptr inbounds nuw i8, ptr %6, i64 4
  store i32 %12, ptr %.sroa.3.0..sroa_idx, align 4, !tbaa !7
  %.sroa.4.0..sroa_idx = getelementptr inbounds nuw i8, ptr %6, i64 8
  store ptr %.8.val, ptr %.sroa.4.0..sroa_idx, align 8, !tbaa !14
  %.sroa.5.0..sroa_idx = getelementptr inbounds nuw i8, ptr %6, i64 16
  store ptr %14, ptr %.sroa.5.0..sroa_idx, align 8, !tbaa !14
  %.sroa.7.0..sroa_idx = getelementptr inbounds nuw i8, ptr %6, i64 48
  store ptr %.8.val, ptr %.sroa.7.0..sroa_idx, align 8, !tbaa !14
  %.sroa.8.0..sroa_idx = getelementptr inbounds nuw i8, ptr %6, i64 56
  store ptr %.16.val, ptr %.sroa.8.0..sroa_idx, align 8, !tbaa !14
  %.sroa.9.0..sroa_idx = getelementptr inbounds nuw i8, ptr %6, i64 64
  store ptr %.8.val1, ptr %.sroa.9.0..sroa_idx, align 8, !tbaa !14
  %.sroa.10.0..sroa_idx = getelementptr inbounds nuw i8, ptr %6, i64 72
  store ptr %.16.val3, ptr %.sroa.10.0..sroa_idx, align 8, !tbaa !14
  %.sroa.11.0..sroa_idx = getelementptr inbounds nuw i8, ptr %6, i64 80
  store ptr %2, ptr %.sroa.11.0..sroa_idx, align 8, !tbaa !103
  %.sroa.12.0..sroa_idx = getelementptr inbounds nuw i8, ptr %6, i64 88
  store ptr %3, ptr %.sroa.12.0..sroa_idx, align 8, !tbaa !103
  %.sroa.13.0..sroa_idx = getelementptr inbounds nuw i8, ptr %6, i64 96
  store ptr %16, ptr %.sroa.13.0..sroa_idx, align 8, !tbaa !14
  %.sroa.14.0..sroa_idx = getelementptr inbounds nuw i8, ptr %6, i64 104
  store ptr %14, ptr %.sroa.14.0..sroa_idx, align 8, !tbaa !14
  ret ptr %6
}